; Function Attrs: nounwind uwtable
define range(i32 -1, 1) i32 @H5VL_link_optional(ptr noundef %0, ptr noundef %1, ptr noundef %2, i64 noundef %3, ptr noundef %4) local_unnamed_addr #0 {
  %6 = load i8, ptr @H5VL_init_g, align 1, !tbaa !33, !range !35, !noundef !36
  %7 = trunc nuw i8 %6 to i1
  %8 = load i8, ptr @H5_libterm_g, align 1, !range !35
  %9 = trunc nuw i8 %8 to i1
  %10 = select i1 %7, i1 true, i1 %9
  br i1 %10, label %18, label %11, !prof !37

11:                                               ; preds = %5
  store i8 1, ptr @H5VL_init_g, align 1, !tbaa !33
  %12 = tail call i32 @H5VL__init_package() #7
  %13 = icmp slt i32 %12, 0
  br i1 %13, label %14, label %._crit_edge

._crit_edge:                                      ; preds = %11
  %.pre = load i8, ptr @H5VL_init_g, align 1, !tbaa !33, !range !35
  %.pre16 = load i8, ptr @H5_libterm_g, align 1, !range !35
  %.pre17 = trunc nuw i8 %.pre to i1
  %.pre18 = trunc nuw i8 %.pre16 to i1
  br label %18

14:                                               ; preds = %11
  store i8 0, ptr @H5VL_init_g, align 1, !tbaa !33
  %15 = load i64, ptr @H5E_FUNC_g, align 8, !tbaa !3
  %16 = load i64, ptr @H5E_CANTINIT_g, align 8, !tbaa !3
  %17 = tail call i32 (ptr, ptr, i32, i64, i64, ptr, ...) @H5E_printf_stack(ptr noundef nonnull @.str, ptr noundef nonnull @__func__.H5VL_link_optional, i32 noundef 5693, i64 noundef %15, i64 noundef %16, ptr noundef nonnull @.str.5) #7
  br label %46

18:                                               ; preds = %._crit_edge, %5
  %.pre-phi19 = phi i1 [ %.pre18, %._crit_edge ], [ %9, %5 ]
  %.pre-phi = phi i1 [ %.pre17, %._crit_edge ], [ %7, %5 ]
  %19 = xor i1 %.pre-phi19, true
  %20 = select i1 %.pre-phi, i1 true, i1 %19
  br i1 %20, label %21, label %46, !prof !37

21:                                               ; preds = %18
  %22 = tail call i32 @H5VL_set_vol_wrapper(ptr noundef %0) #7
  %23 = icmp slt i32 %22, 0
  br i1 %23, label %24, label %28

24:                                               ; preds = %21
  %25 = load i64, ptr @H5E_VOL_g, align 8, !tbaa !3
  %26 = load i64, ptr @H5E_CANTSET_g, align 8, !tbaa !3
  %27 = tail call i32 (ptr, ptr, i32, i64, i64, ptr, ...) @H5E_printf_stack(ptr noundef nonnull @.str, ptr noundef nonnull @__func__.H5VL_link_optional, i32 noundef 5697, i64 noundef %25, i64 noundef %26, ptr noundef nonnull @.str.24) #7
  br label %46

28:                                               ; preds = %21
  %29 = load ptr, ptr %0, align 8, !tbaa !55
  %30 = getelementptr inbounds nuw i8, ptr %0, i64 8
  %31 = load ptr, ptr %30, align 8, !tbaa !57
  %32 = load ptr, ptr %31, align 8, !tbaa !7
  %33 = tail call fastcc i32 @H5VL__link_optional(ptr noundef %29, ptr noundef %1, ptr noundef %32, ptr noundef %2, i64 noundef %3, ptr noundef %4)
  %34 = icmp slt i32 %33, 0
  br i1 %34, label %35, label %39

35:                                               ; preds = %28
  %36 = load i64, ptr @H5E_VOL_g, align 8, !tbaa !3
  %37 = load i64, ptr @H5E_CANTOPERATE_g, align 8, !tbaa !3
  %38 = tail call i32 (ptr, ptr, i32, i64, i64, ptr, ...) @H5E_printf_stack(ptr noundef nonnull @.str, ptr noundef nonnull @__func__.H5VL_link_optional, i32 noundef 5702, i64 noundef %36, i64 noundef %37, ptr noundef nonnull @.str.121) #7
  br label %39

39:                                               ; preds = %35, %28
  %.0.ph = phi i32 [ 0, %28 ], [ -1, %35 ]
  %40 = tail call i32 @H5VL_reset_vol_wrapper() #7
  %41 = icmp slt i32 %40, 0
  br i1 %41, label %42, label %46

42:                                               ; preds = %39
  %43 = load i64, ptr @H5E_VOL_g, align 8, !tbaa !3
  %44 = load i64, ptr @H5E_CANTRESET_g, align 8, !tbaa !3
  %45 = tail call i32 (ptr, ptr, i32, i64, i64, ptr, ...) @H5E_printf_stack(ptr noundef nonnull @.str, ptr noundef nonnull @__func__.H5VL_link_optional, i32 noundef 5707, i64 noundef %43, i64 noundef %44, ptr noundef nonnull @.str.26) #7
  br label %46

46:                                               ; preds = %14, %24, %39, %42, %18
  %.1 = phi i32 [ -1, %42 ], [ %.0.ph, %39 ], [ 0, %18 ], [ -1, %14 ], [ -1, %24 ]
  ret i32 %.1
}